target datalayout = "e-m:e-p270:32:32-p271:32:32-p272:64:64-i64:64-i128:128-f80:128-n8:16:32:64-S128"
target triple = "x86_64-pc-linux-gnu"

%struct.ConvolveParams = type { i32, ptr, i32, i32, i32, i32, i32, i32, i32, i32 }

; Function Attrs: nounwind uwtable
define internal i32 @clamp(i32 noundef %0, i32 noundef %1, i32 noundef %2) #0 {
  %4 = alloca i32, align 4
  %5 = alloca i32, align 4
  %6 = alloca i32, align 4
  store i32 %0, ptr %4, align 4
  store i32 %1, ptr %5, align 4
  store i32 %2, ptr %6, align 4
  %7 = load i32, ptr %4, align 4
  %8 = load i32, ptr %5, align 4
  %9 = icmp slt i32 %7, %8
  br i1 %9, label %10, label %12

10:                                               ; preds = %3
  %11 = load i32, ptr %5, align 4
  br label %22

12:                                               ; preds = %3
  %13 = load i32, ptr %4, align 4
  %14 = load i32, ptr %6, align 4
  %15 = icmp sgt i32 %13, %14
  br i1 %15, label %16, label %18

16:                                               ; preds = %12
  %17 = load i32, ptr %6, align 4
  br label %20

18:                                               ; preds = %12
  %19 = load i32, ptr %4, align 4
  br label %20

20:                                               ; preds = %18, %16
  %21 = phi i32 [ %17, %16 ], [ %19, %18 ]
  br label %22

22:                                               ; preds = %20, %10
  %23 = phi i32 [ %11, %10 ], [ %21, %20 ]
  ret i32 %23
}

; Function Attrs: nounwind uwtable
define internal zeroext i16 @clip_pixel_highbd(i32 noundef %0, i32 noundef %1) #0 {
  %3 = alloca i16, align 2
  %4 = alloca i32, align 4
  %5 = alloca i32, align 4
  store i32 %0, ptr %4, align 4
  store i32 %1, ptr %5, align 4
  %6 = load i32, ptr %5, align 4
  switch i32 %6, label %8 [
    i32 8, label %7
    i32 10, label %12
    i32 12, label %16
  ]

7:                                                ; preds = %2
  br label %8

8:                                                ; preds = %7, %2
  %9 = load i32, ptr %4, align 4
  %10 = call i32 @clamp(i32 noundef %9, i32 noundef 0, i32 noundef 255)
  %11 = trunc i32 %10 to i16
  store i16 %11, ptr %3, align 2
  br label %20

12:                                               ; preds = %2
  %13 = load i32, ptr %4, align 4
  %14 = call i32 @clamp(i32 noundef %13, i32 noundef 0, i32 noundef 1023)
  %15 = trunc i32 %14 to i16
  store i16 %15, ptr %3, align 2
  br label %20

16:                                               ; preds = %2
  %17 = load i32, ptr %4, align 4
  %18 = call i32 @clamp(i32 noundef %17, i32 noundef 0, i32 noundef 4095)
  %19 = trunc i32 %18 to i16
  store i16 %19, ptr %3, align 2
  br label %20

20:                                               ; preds = %16, %12, %8
  %21 = load i16, ptr %3, align 2
  ret i16 %21
}

; Function Attrs: nounwind uwtable
define hidden void @av1_highbd_dist_wtd_convolve_2d_copy_c(ptr noundef %0, i32 noundef %1, ptr noundef %2, i32 noundef %3, i32 noundef %4, i32 noundef %5, ptr noundef %6, i32 noundef %7) #0 {
  %9 = alloca ptr, align 8
  %10 = alloca i32, align 4
  %11 = alloca ptr, align 8
  %12 = alloca i32, align 4
  %13 = alloca i32, align 4
  %14 = alloca i32, align 4
  %15 = alloca ptr, align 8
  %16 = alloca i32, align 4
  %17 = alloca ptr, align 8
  %18 = alloca i32, align 4
  %19 = alloca i32, align 4
  %20 = alloca i32, align 4
  %21 = alloca i32, align 4
  %22 = alloca i32, align 4
  %23 = alloca i32, align 4
  %24 = alloca i16, align 2
  %25 = alloca i32, align 4
  store ptr %0, ptr %9, align 8
  store i32 %1, ptr %10, align 4
  store ptr %2, ptr %11, align 8
  store i32 %3, ptr %12, align 4
  store i32 %4, ptr %13, align 4
  store i32 %5, ptr %14, align 4
  store ptr %6, ptr %15, align 8
  store i32 %7, ptr %16, align 4
  %26 = load ptr, ptr %15, align 8
  %27 = getelementptr inbounds nuw %struct.ConvolveParams, ptr %26, i32 0, i32 1
  %28 = load ptr, ptr %27, align 8
  store ptr %28, ptr %17, align 8
  %29 = load ptr, ptr %15, align 8
  %30 = getelementptr inbounds nuw %struct.ConvolveParams, ptr %29, i32 0, i32 2
  %31 = load i32, ptr %30, align 8
  store i32 %31, ptr %18, align 4
  %32 = load ptr, ptr %15, align 8
  %33 = getelementptr inbounds nuw %struct.ConvolveParams, ptr %32, i32 0, i32 4
  %34 = load i32, ptr %33, align 8
  %35 = sub nsw i32 14, %34
  %36 = load ptr, ptr %15, align 8
  %37 = getelementptr inbounds nuw %struct.ConvolveParams, ptr %36, i32 0, i32 3
  %38 = load i32, ptr %37, align 4
  %39 = sub nsw i32 %35, %38
  store i32 %39, ptr %19, align 4
  %40 = load i32, ptr %16, align 4
  %41 = add nsw i32 %40, 14
  %42 = load ptr, ptr %15, align 8
  %43 = getelementptr inbounds nuw %struct.ConvolveParams, ptr %42, i32 0, i32 3
  %44 = load i32, ptr %43, align 4
  %45 = sub nsw i32 %41, %44
  store i32 %45, ptr %20, align 4
  %46 = load i32, ptr %20, align 4
  %47 = load ptr, ptr %15, align 8
  %48 = getelementptr inbounds nuw %struct.ConvolveParams, ptr %47, i32 0, i32 4
  %49 = load i32, ptr %48, align 8
  %50 = sub nsw i32 %46, %49
  %51 = shl i32 1, %50
  %52 = load i32, ptr %20, align 4
  %53 = load ptr, ptr %15, align 8
  %54 = getelementptr inbounds nuw %struct.ConvolveParams, ptr %53, i32 0, i32 4
  %55 = load i32, ptr %54, align 8
  %56 = sub nsw i32 %52, %55
  %57 = sub nsw i32 %56, 1
  %58 = shl i32 1, %57
  %59 = add nsw i32 %51, %58
  store i32 %59, ptr %21, align 4
  store i32 0, ptr %22, align 4
  br label %60

60:                                               ; preds = %165, %8
  %61 = load i32, ptr %22, align 4
  %62 = load i32, ptr %14, align 4
  %63 = icmp slt i32 %61, %62
  br i1 %63, label %64, label %168

64:                                               ; preds = %60
  store i32 0, ptr %23, align 4
  br label %65

65:                                               ; preds = %161, %64
  %66 = load i32, ptr %23, align 4
  %67 = load i32, ptr %13, align 4
  %68 = icmp slt i32 %66, %67
  br i1 %68, label %69, label %164

69:                                               ; preds = %65
  %70 = load ptr, ptr %9, align 8
  %71 = load i32, ptr %22, align 4
  %72 = load i32, ptr %10, align 4
  %73 = mul nsw i32 %71, %72
  %74 = load i32, ptr %23, align 4
  %75 = add nsw i32 %73, %74
  %76 = sext i32 %75 to i64
  %77 = getelementptr inbounds i16, ptr %70, i64 %76
  %78 = load i16, ptr %77, align 2
  %79 = zext i16 %78 to i32
  %80 = load i32, ptr %19, align 4
  %81 = shl i32 %79, %80
  %82 = trunc i32 %81 to i16
  store i16 %82, ptr %24, align 2
  %83 = load i32, ptr %21, align 4
  %84 = load i16, ptr %24, align 2
  %85 = zext i16 %84 to i32
  %86 = add nsw i32 %85, %83
  %87 = trunc i32 %86 to i16
  store i16 %87, ptr %24, align 2
  %88 = load ptr, ptr %15, align 8
  %89 = getelementptr inbounds nuw %struct.ConvolveParams, ptr %88, i32 0, i32 0
  %90 = load i32, ptr %89, align 8
  %91 = icmp ne i32 %90, 0
  br i1 %91, label %92, label %150

92:                                               ; preds = %69
  %93 = load ptr, ptr %17, align 8
  %94 = load i32, ptr %22, align 4
  %95 = load i32, ptr %18, align 4
  %96 = mul nsw i32 %94, %95
  %97 = load i32, ptr %23, align 4
  %98 = add nsw i32 %96, %97
  %99 = sext i32 %98 to i64
  %100 = getelementptr inbounds i16, ptr %93, i64 %99
  %101 = load i16, ptr %100, align 2
  %102 = zext i16 %101 to i32
  store i32 %102, ptr %25, align 4
  %103 = load ptr, ptr %15, align 8
  %104 = getelementptr inbounds nuw %struct.ConvolveParams, ptr %103, i32 0, i32 7
  %105 = load i32, ptr %104, align 4
  %106 = icmp ne i32 %105, 0
  br i1 %106, label %107, label %122

107:                                              ; preds = %92
  %108 = load i32, ptr %25, align 4
  %109 = load ptr, ptr %15, align 8
  %110 = getelementptr inbounds nuw %struct.ConvolveParams, ptr %109, i32 0, i32 8
  %111 = load i32, ptr %110, align 8
  %112 = mul nsw i32 %108, %111
  %113 = load i16, ptr %24, align 2
  %114 = zext i16 %113 to i32
  %115 = load ptr, ptr %15, align 8
  %116 = getelementptr inbounds nuw %struct.ConvolveParams, ptr %115, i32 0, i32 9
  %117 = load i32, ptr %116, align 4
  %118 = mul nsw i32 %114, %117
  %119 = add nsw i32 %112, %118
  store i32 %119, ptr %25, align 4
  %120 = load i32, ptr %25, align 4
  %121 = ashr i32 %120, 4
  store i32 %121, ptr %25, align 4
  br label %129

122:                                              ; preds = %92
  %123 = load i16, ptr %24, align 2
  %124 = zext i16 %123 to i32
  %125 = load i32, ptr %25, align 4
  %126 = add nsw i32 %125, %124
  store i32 %126, ptr %25, align 4
  %127 = load i32, ptr %25, align 4
  %128 = ashr i32 %127, 1
  store i32 %128, ptr %25, align 4
  br label %129

129:                                              ; preds = %122, %107
  %130 = load i32, ptr %21, align 4
  %131 = load i32, ptr %25, align 4
  %132 = sub nsw i32 %131, %130
  store i32 %132, ptr %25, align 4
  %133 = load i32, ptr %25, align 4
  %134 = load i32, ptr %19, align 4
  %135 = shl i32 1, %134
  %136 = ashr i32 %135, 1
  %137 = add nsw i32 %133, %136
  %138 = load i32, ptr %19, align 4
  %139 = ashr i32 %137, %138
  %140 = load i32, ptr %16, align 4
  %141 = call zeroext i16 @clip_pixel_highbd(i32 noundef %139, i32 noundef %140)
  %142 = load ptr, ptr %11, align 8
  %143 = load i32, ptr %22, align 4
  %144 = load i32, ptr %12, align 4
  %145 = mul nsw i32 %143, %144
  %146 = load i32, ptr %23, align 4
  %147 = add nsw i32 %145, %146
  %148 = sext i32 %147 to i64
  %149 = getelementptr inbounds i16, ptr %142, i64 %148
  store i16 %141, ptr %149, align 2
  br label %160

150:                                              ; preds = %69
  %151 = load i16, ptr %24, align 2
  %152 = load ptr, ptr %17, align 8
  %153 = load i32, ptr %22, align 4
  %154 = load i32, ptr %18, align 4
  %155 = mul nsw i32 %153, %154
  %156 = load i32, ptr %23, align 4
  %157 = add nsw i32 %155, %156
  %158 = sext i32 %157 to i64
  %159 = getelementptr inbounds i16, ptr %152, i64 %158
  store i16 %151, ptr %159, align 2
  br label %160

160:                                              ; preds = %150, %129
  br label %161

161:                                              ; preds = %160
  %162 = load i32, ptr %23, align 4
  %163 = add nsw i32 %162, 1
  store i32 %163, ptr %23, align 4
  br label %65, !llvm.loop !73

164:                                              ; preds = %65
  br label %165

165:                                              ; preds = %164
  %166 = load i32, ptr %22, align 4
  %167 = add nsw i32 %166, 1
  store i32 %167, ptr %22, align 4
  br label %60, !llvm.loop !74

168:                                              ; preds = %60
  ret void
}