; Function Attrs: nofree norecurse nosync nounwind memory(readwrite, inaccessiblemem: none) uwtable
define hidden void @av1_highbd_dist_wtd_convolve_2d_copy_c(ptr noundef readonly captures(none) %0, i32 noundef %1, ptr noundef writeonly captures(none) %2, i32 noundef %3, i32 noundef %4, i32 noundef %5, ptr noundef readonly captures(none) %6, i32 noundef %7) local_unnamed_addr #2 {
  %9 = getelementptr inbounds nuw i8, ptr %6, i64 8
  %10 = load ptr, ptr %9, align 8
  %11 = getelementptr inbounds nuw i8, ptr %6, i64 16
  %12 = load i32, ptr %11, align 8
  %13 = getelementptr inbounds nuw i8, ptr %6, i64 24
  %14 = load i32, ptr %13, align 8
  %15 = getelementptr inbounds nuw i8, ptr %6, i64 20
  %16 = load i32, ptr %15, align 4
  %17 = add i32 %16, %14
  %18 = sub i32 14, %17
  %19 = add nsw i32 %7, 14
  %20 = sub i32 %19, %17
  %21 = shl nuw i32 1, %20
  %22 = add nsw i32 %20, -1
  %23 = shl nuw i32 1, %22
  %24 = add nsw i32 %23, %21
  %25 = icmp sgt i32 %5, 0
  br i1 %25, label %.preheader.lr.ph, label %._crit_edge57

.preheader.lr.ph:                                 ; preds = %8
  %26 = icmp sgt i32 %4, 0
  %27 = getelementptr inbounds nuw i8, ptr %6, i64 36
  %28 = getelementptr inbounds nuw i8, ptr %6, i64 40
  %29 = getelementptr inbounds nuw i8, ptr %6, i64 44
  %30 = shl nuw i32 1, %18
  %31 = ashr i32 %30, 1
  %32 = sub i32 %31, %24
  br i1 %26, label %.preheader.us.preheader, label %._crit_edge57

.preheader.us.preheader:                          ; preds = %.preheader.lr.ph
  %33 = sext i32 %1 to i64
  %34 = sext i32 %12 to i64
  %35 = sext i32 %3 to i64
  %wide.trip.count63 = zext nneg i32 %5 to i64
  %wide.trip.count = zext nneg i32 %4 to i64
  br label %.preheader.us

.preheader.us:                                    ; preds = %.preheader.us.preheader, %._crit_edge.us
  %indvars.iv60 = phi i64 [ 0, %.preheader.us.preheader ], [ %indvars.iv.next61, %._crit_edge.us ]
  %36 = mul nsw i64 %indvars.iv60, %33
  %37 = mul nsw i64 %indvars.iv60, %34
  %38 = mul nsw i64 %indvars.iv60, %35
  %invariant.gep = getelementptr i16, ptr %0, i64 %36
  %invariant.gep65 = getelementptr i16, ptr %10, i64 %37
  %invariant.gep67 = getelementptr i16, ptr %2, i64 %38
  %invariant.gep69 = getelementptr i16, ptr %10, i64 %37
  br label %39

39:                                               ; preds = %.preheader.us, %74
  %indvars.iv = phi i64 [ 0, %.preheader.us ], [ %indvars.iv.next, %74 ]
  %gep = getelementptr i16, ptr %invariant.gep, i64 %indvars.iv
  %40 = load i16, ptr %gep, align 2
  %41 = zext i16 %40 to i32
  %42 = shl i32 %41, %18
  %43 = add i32 %42, %24
  %44 = load i32, ptr %6, align 8
  %.not.us = icmp eq i32 %44, 0
  br i1 %.not.us, label %72, label %45

45:                                               ; preds = %39
  %gep66 = getelementptr i16, ptr %invariant.gep65, i64 %indvars.iv
  %46 = load i16, ptr %gep66, align 2
  %47 = zext i16 %46 to i32
  %48 = load i32, ptr %27, align 4
  %.not53.us = icmp eq i32 %48, 0
  br i1 %.not53.us, label %57, label %49

49:                                               ; preds = %45
  %50 = load i32, ptr %28, align 8
  %51 = mul nsw i32 %50, %47
  %52 = and i32 %43, 65535
  %53 = load i32, ptr %29, align 4
  %54 = mul nsw i32 %53, %52
  %55 = add nsw i32 %54, %51
  %56 = ashr i32 %55, 4
  br label %61

57:                                               ; preds = %45
  %58 = and i32 %43, 65535
  %59 = add nuw nsw i32 %58, %47
  %60 = lshr i32 %59, 1
  br label %61

61:                                               ; preds = %57, %49
  %.0.us = phi i32 [ %56, %49 ], [ %60, %57 ]
  %62 = add i32 %32, %.0.us
  %63 = ashr i32 %62, %18
  switch i32 %7, label %68 [
    i32 12, label %66
    i32 10, label %64
  ]

64:                                               ; preds = %61
  %65 = tail call i32 @llvm.umin.i32(i32 %63, i32 1023)
  br label %clip_pixel_highbd.exit.us

66:                                               ; preds = %61
  %67 = tail call i32 @llvm.umin.i32(i32 %63, i32 4095)
  br label %clip_pixel_highbd.exit.us

68:                                               ; preds = %61
  %69 = tail call i32 @llvm.umin.i32(i32 %63, i32 255)
  br label %clip_pixel_highbd.exit.us

clip_pixel_highbd.exit.us:                        ; preds = %68, %66, %64
  %.sink.i.us = phi i32 [ %67, %66 ], [ %65, %64 ], [ %69, %68 ]
  %70 = icmp slt i32 %63, 0
  %71 = trunc nuw nsw i32 %.sink.i.us to i16
  %.0.i.us = select i1 %70, i16 0, i16 %71
  br label %74

72:                                               ; preds = %39
  %73 = trunc i32 %43 to i16
  br label %74

74:                                               ; preds = %72, %clip_pixel_highbd.exit.us
  %invariant.gep69.sink = phi ptr [ %invariant.gep69, %72 ], [ %invariant.gep67, %clip_pixel_highbd.exit.us ]
  %.sink = phi i16 [ %73, %72 ], [ %.0.i.us, %clip_pixel_highbd.exit.us ]
  %gep70 = getelementptr i16, ptr %invariant.gep69.sink, i64 %indvars.iv
  store i16 %.sink, ptr %gep70, align 2
  %indvars.iv.next = add nuw nsw i64 %indvars.iv, 1
  %exitcond.not = icmp eq i64 %indvars.iv.next, %wide.trip.count
  br i1 %exitcond.not, label %._crit_edge.us, label %39, !llvm.loop !73

._crit_edge.us:                                   ; preds = %74
  %indvars.iv.next61 = add nuw nsw i64 %indvars.iv60, 1
  %exitcond64.not = icmp eq i64 %indvars.iv.next61, %wide.trip.count63
  br i1 %exitcond64.not, label %._crit_edge57, label %.preheader.us, !llvm.loop !74

._crit_edge57:                                    ; preds = %._crit_edge.us, %.preheader.lr.ph, %8
  ret void
}